(dp0
S'south'
p1
c__builtin__
set
p2
((lp3
(S'd1'
p4
S'd2'
p5
tp6
a(S'c3'
p7
S'd0'
p8
tp9
a(S'g1'
p10
S'g0'
p11
tp12
a(S'g3'
p13
S'g2'
p14
tp15
a(S'd3'
p16
S'd4'
p17
tp18
a(S'g0'
p19
S'c3'
p20
tp21
a(S'd2'
p22
S'd3'
p23
tp24
a(S'd0'
p25
S'd1'
p26
tp27
a(S'g2'
p28
S'g1'
p29
tp30
a(S'g4'
p31
S'g3'
p32
tp33
atp34
Rp35
sS'has'
p36
g2
((lp37
tp38
Rp39
sS'north'
p40
g2
((lp41
(S'd3'
p42
S'd2'
p43
tp44
a(S'c3'
p45
S'g0'
p46
tp47
a(S'd4'
p48
S'd3'
p49
tp50
a(S'd2'
p51
S'd1'
p52
tp53
a(S'd0'
p54
S'c3'
p55
tp56
a(S'g2'
p57
S'g3'
p58
tp59
a(S'g3'
p60
S'g4'
p61
tp62
a(S'd1'
p63
S'd0'
p64
tp65
a(S'g0'
p66
S'g1'
p67
tp68
a(S'g1'
p69
S'g2'
p70
tp71
atp72
Rp73
sS'wall'
p74
g2
((lp75
tp76
Rp77
sS'west'
p78
g2
((lp79
(S'c2'
p80
S'c1'
p81
tp82
a(S'c0'
p83
S'c00'
p84
tp85
a(S'c1'
p86
S'c0'
p87
tp88
a(S'c3'
p89
S'c2'
p90
tp91
atp92
Rp93
sS'person'
p94
g2
((lp95
(S'person1'
p96
tp97
atp98
Rp99
sS'food'
p100
g2
((lp101
(S'food1'
p102
tp103
a(S'food2'
p104
tp105
atp106
Rp107
sS'east'
p108
g2
((lp109
(S'c00'
p110
S'c0'
p111
tp112
a(S'c2'
p113
S'c3'
p114
tp115
a(S'c0'
p116
S'c1'
p117
tp118
a(S'c1'
p119
S'c2'
p120
tp121
atp122
Rp123
sS'='
p124
g2
((lp125
(S'food1'
p126
g126
tp127
a(S'person1'
p128
g128
tp129
a(S'c1'
p130
g130
tp131
a(S'c2'
p132
g132
tp133
a(S'g0'
p134
g134
tp135
a(S'g1'
p136
g136
tp137
a(S'g4'
p138
g138
tp139
a(S'c00'
p140
g140
tp141
a(S'food2'
p142
g142
tp143
a(S'd3'
p144
g144
tp145
a(S'g2'
p146
g146
tp147
a(S'd2'
p148
g148
tp149
a(S'd4'
p150
g150
tp151
a(S'c3'
p152
g152
tp153
a(S'd0'
p154
g154
tp155
a(S'g3'
p156
g156
tp157
a(S'c0'
p158
g158
tp159
a(S'd1'
p160
g160
tp161
atp162
Rp163
sS'empty'
p164
g2
((lp165
(S'd4'
p166
tp167
a(S'c3'
p168
tp169
a(S'c0'
p170
tp171
a(S'c1'
p172
tp173
a(S'd3'
p174
tp175
a(S'd2'
p176
tp177
a(S'g4'
p178
tp179
a(S'd0'
p180
tp181
a(S'g3'
p182
tp183
a(S'd1'
p184
tp185
a(S'g2'
p186
tp187
a(S'g1'
p188
tp189
a(S'g0'
p190
tp191
a(S'c00'
p192
tp193
a(S'c2'
p194
tp195
atp196
Rp197
sS'at'
p198
g2
((lp199
(Vperson1
p200
Vd2
p201
tp202
atp203
Rp204
s.