(dp0
S'south'
p1
c__builtin__
set
p2
((lp3
(S'd1'
p4
S'd2'
p5
tp6
a(S'c3'
p7
S'd0'
p8
tp9
a(S'g1'
p10
S'g0'
p11
tp12
a(S'g3'
p13
S'g2'
p14
tp15
a(S'd3'
p16
S'd4'
p17
tp18
a(S'g0'
p19
S'c3'
p20
tp21
a(S'd2'
p22
S'd3'
p23
tp24
a(S'd0'
p25
S'd1'
p26
tp27
a(S'g2'
p28
S'g1'
p29
tp30
a(S'g4'
p31
S'g3'
p32
tp33
atp34
Rp35
sS'has'
p36
g2
((lp37
(Vperson1
p38
Vfood2
p39
tp40
atp41
Rp42
sS'north'
p43
g2
((lp44
(S'd3'
p45
S'd2'
p46
tp47
a(S'c3'
p48
S'g0'
p49
tp50
a(S'd4'
p51
S'd3'
p52
tp53
a(S'd2'
p54
S'd1'
p55
tp56
a(S'd0'
p57
S'c3'
p58
tp59
a(S'g2'
p60
S'g3'
p61
tp62
a(S'g3'
p63
S'g4'
p64
tp65
a(S'd1'
p66
S'd0'
p67
tp68
a(S'g0'
p69
S'g1'
p70
tp71
a(S'g1'
p72
S'g2'
p73
tp74
atp75
Rp76
sS'wall'
p77
g2
((lp78
tp79
Rp80
sS'west'
p81
g2
((lp82
(S'c2'
p83
S'c1'
p84
tp85
a(S'c0'
p86
S'c00'
p87
tp88
a(S'c1'
p89
S'c0'
p90
tp91
a(S'c3'
p92
S'c2'
p93
tp94
atp95
Rp96
sS'person'
p97
g2
((lp98
(S'person1'
p99
tp100
atp101
Rp102
sS'food'
p103
g2
((lp104
(S'food1'
p105
tp106
a(S'food2'
p107
tp108
atp109
Rp110
sS'east'
p111
g2
((lp112
(S'c00'
p113
S'c0'
p114
tp115
a(S'c2'
p116
S'c3'
p117
tp118
a(S'c0'
p119
S'c1'
p120
tp121
a(S'c1'
p122
S'c2'
p123
tp124
atp125
Rp126
sS'='
p127
g2
((lp128
(S'food1'
p129
g129
tp130
a(S'person1'
p131
g131
tp132
a(S'c1'
p133
g133
tp134
a(S'c2'
p135
g135
tp136
a(S'g0'
p137
g137
tp138
a(S'g1'
p139
g139
tp140
a(S'g4'
p141
g141
tp142
a(S'c00'
p143
g143
tp144
a(S'food2'
p145
g145
tp146
a(S'd3'
p147
g147
tp148
a(S'g2'
p149
g149
tp150
a(S'd2'
p151
g151
tp152
a(S'd4'
p153
g153
tp154
a(S'c3'
p155
g155
tp156
a(S'd0'
p157
g157
tp158
a(S'g3'
p159
g159
tp160
a(S'c0'
p161
g161
tp162
a(S'd1'
p163
g163
tp164
atp165
Rp166
sS'empty'
p167
g2
((lp168
(S'd4'
p169
tp170
a(S'c3'
p171
tp172
a(S'c0'
p173
tp174
a(S'c1'
p175
tp176
a(S'd3'
p177
tp178
a(S'd2'
p179
tp180
a(S'g4'
p181
tp182
a(S'd0'
p183
tp184
a(S'g3'
p185
tp186
a(S'd1'
p187
tp188
a(S'g2'
p189
tp190
a(S'g1'
p191
tp192
a(S'g0'
p193
tp194
a(S'c00'
p195
tp196
a(S'c2'
p197
tp198
atp199
Rp200
sS'at'
p201
g2
((lp202
(Vperson1
p203
Vg3
p204
tp205
atp206
Rp207
s.