(dp0
S'south'
p1
c__builtin__
set
p2
((lp3
(S'd1'
p4
S'd2'
p5
tp6
a(S'c3'
p7
S'd0'
p8
tp9
a(S'g1'
p10
S'g0'
p11
tp12
a(S'g3'
p13
S'g2'
p14
tp15
a(S'd3'
p16
S'd4'
p17
tp18
a(S'g0'
p19
S'c3'
p20
tp21
a(S'd2'
p22
S'd3'
p23
tp24
a(S'd0'
p25
S'd1'
p26
tp27
a(S'g2'
p28
S'g1'
p29
tp30
a(S'g4'
p31
S'g3'
p32
tp33
atp34
Rp35
sS'has'
p36
g2
((lp37
(Vperson1
p38
Vfood1
p39
tp40
a(Vperson1
p41
Vfood2
p42
tp43
atp44
Rp45
sS'north'
p46
g2
((lp47
(S'd3'
p48
S'd2'
p49
tp50
a(S'c3'
p51
S'g0'
p52
tp53
a(S'd4'
p54
S'd3'
p55
tp56
a(S'd2'
p57
S'd1'
p58
tp59
a(S'd0'
p60
S'c3'
p61
tp62
a(S'g2'
p63
S'g3'
p64
tp65
a(S'g3'
p66
S'g4'
p67
tp68
a(S'd1'
p69
S'd0'
p70
tp71
a(S'g0'
p72
S'g1'
p73
tp74
a(S'g1'
p75
S'g2'
p76
tp77
atp78
Rp79
sS'wall'
p80
g2
((lp81
tp82
Rp83
sS'west'
p84
g2
((lp85
(S'c2'
p86
S'c1'
p87
tp88
a(S'c0'
p89
S'c00'
p90
tp91
a(S'c1'
p92
S'c0'
p93
tp94
a(S'c3'
p95
S'c2'
p96
tp97
atp98
Rp99
sS'person'
p100
g2
((lp101
(S'person1'
p102
tp103
atp104
Rp105
sS'food'
p106
g2
((lp107
(S'food1'
p108
tp109
a(S'food2'
p110
tp111
atp112
Rp113
sS'east'
p114
g2
((lp115
(S'c00'
p116
S'c0'
p117
tp118
a(S'c2'
p119
S'c3'
p120
tp121
a(S'c0'
p122
S'c1'
p123
tp124
a(S'c1'
p125
S'c2'
p126
tp127
atp128
Rp129
sS'='
p130
g2
((lp131
(S'food1'
p132
g132
tp133
a(S'person1'
p134
g134
tp135
a(S'c1'
p136
g136
tp137
a(S'c2'
p138
g138
tp139
a(S'g0'
p140
g140
tp141
a(S'g1'
p142
g142
tp143
a(S'g4'
p144
g144
tp145
a(S'c00'
p146
g146
tp147
a(S'food2'
p148
g148
tp149
a(S'd3'
p150
g150
tp151
a(S'g2'
p152
g152
tp153
a(S'd2'
p154
g154
tp155
a(S'd4'
p156
g156
tp157
a(S'c3'
p158
g158
tp159
a(S'd0'
p160
g160
tp161
a(S'g3'
p162
g162
tp163
a(S'c0'
p164
g164
tp165
a(S'd1'
p166
g166
tp167
atp168
Rp169
sS'empty'
p170
g2
((lp171
(S'd4'
p172
tp173
a(S'c3'
p174
tp175
a(S'c0'
p176
tp177
a(S'c1'
p178
tp179
a(S'd3'
p180
tp181
a(S'd2'
p182
tp183
a(S'g4'
p184
tp185
a(S'd0'
p186
tp187
a(S'g3'
p188
tp189
a(S'd1'
p190
tp191
a(S'g2'
p192
tp193
a(S'g1'
p194
tp195
a(S'g0'
p196
tp197
a(S'c00'
p198
tp199
a(S'c2'
p200
tp201
atp202
Rp203
sS'at'
p204
g2
((lp205
(S'food1'
p206
S'g4'
p207
tp208
a(Vperson1
p209
Vg4
p210
tp211
atp212
Rp213
s.