(imy_agent
Graph
p0
(dp1
S'edges'
p2
ccollections
defaultdict
p3
(c__builtin__
list
p4
tp5
Rp6
S'20'
p7
(lp8
S'19'
p9
aS'21'
p10
aS'21'
p11
asg11
(lp12
g7
aS'22'
p13
aS'22'
p14
asg14
(lp15
g11
aS'23'
p16
asS'23'
p17
(lp18
S'g'
p19
asS'1'
p20
(lp21
S'3'
p22
asS'0'
p23
(lp24
g20
asg22
(lp25
S'4'
p26
asS'5'
p27
(lp28
S'6'
p29
asg26
(lp30
g27
asS'7'
p31
(lp32
g29
ag29
asg29
(lp33
g31
ag31
aS'8'
p34
asS'9'
p35
(lp36
g34
ag34
aS'10'
p37
aS'10'
p38
ag38
asg34
(lp39
g35
ag35
ag35
asS'11'
p40
(lp41
g38
aS'12'
p42
asg38
(lp43
g35
aS'11'
p44
ag35
ag40
asS'13'
p45
(lp46
S'14'
p47
asS'12'
p48
(lp49
S'13'
p50
asS'15'
p51
(lp52
S'14'
p53
aS'16'
p54
asg53
(lp55
S'15'
p56
asS'17'
p57
(lp58
S'18'
p59
asS'16'
p60
(lp61
S'17'
p62
asg9
(lp63
S'18'
p64
aS'20'
p65
ag7
ag7
asg64
(lp66
S'19'
p67
ag9
assS'weights'
p68
(dp69
(g53
g56
tp70
F10.149645431917785
s(g31
g29
tp71
F76.42330965691262
s(g7
g9
tp72
F7.506254169049629
s(g51
g53
tp73
F9.579124073553816
s(g29
g31
tp74
F82.83669909066639
s(g51
g54
tp75
F15.64029002744216
s(g9
g64
tp76
F10.700240162817062
s(g38
g35
tp77
F18.455621412507092
s(g22
g26
tp78
F138.61024091148363
s(g17
g19
tp79
F4.134285421206016
s(g40
g42
tp80
F11.685854974284739
s(g23
g20
tp81
I1
s(g11
g7
tp82
F6.71995622458518
s(g40
g38
tp83
F20.450690458341214
s(g26
g27
tp84
F129.14345219278934
s(g34
g35
tp85
F37.92682878297287
s(g35
g34
tp86
F38.892181640314355
s(g7
g10
tp87
F6.542624350432341
s(g14
g11
tp88
F5.3945257238501965
s(g35
g37
tp89
F14.309697499116961
s(g64
g67
tp90
F9.680216146535356
s(g29
g34
tp91
F70.57619044613355
s(g57
g59
tp92
F13.092889089897605
s(g11
g13
tp93
F5.169630196027713
s(g48
g50
tp94
F9.721084917377976
s(g45
g47
tp95
F9.946413152186244
s(g27
g29
tp96
F117.9245927063124
s(g14
g16
tp97
F4.922658382520596
s(g60
g62
tp98
F14.367418510799176
s(g38
g44
tp99
F12.928727749205265
s(g9
g65
tp100
F7.656122293168278
s(g20
g22
tp101
F148.893655442785
ssS'actions'
p102
(dp103
(g53
g56
tp104
V(move-north0 person1 d3 d2)
p105
s(g31
g29
tp106
V(move-south0 person1 g0 c3)
p107
s(g7
g9
tp108
V(move-south1 person1 g1 g0 g2)
p109
s(g51
g53
tp110
V(move-north1 person1 d2 d1 d3)
p111
s(g29
g31
tp112
V(move-west1 person1 c3 c2 g0)
p113
s(g51
g54
tp114
V(move-north1 person1 d2 d1 d3)
p115
s(g9
g64
tp116
V(move-south1 person1 g0 c3 g1)
p117
s(g38
g35
tp118
V(move-north1 person1 d2 d1 d3)
p119
s(g22
g26
tp120
V(move-east0 person1 c0 c1)
p121
s(g17
g19
tp122
V(pick-food person1 g4 food1)
p123
s(g40
g42
tp124
V(move-south1 person1 d3 d4 d2)
p125
s(g23
g20
tp126
S'(move-east0 person1 c00 c0)'
p127
s(g11
g7
tp128
V(move-south0 person1 g2 g1)
p129
s(g40
g38
tp130
V(move-north0 person1 d3 d2)
p131
s(g26
g27
tp132
V(move-west3 person1 c1 c0 c2)
p133
s(g34
g35
tp134
V(move-south1 person1 d0 d1 c3)
p135
s(g35
g34
tp136
V(move-north1 person1 d1 d0 d2)
p137
s(g7
g10
tp138
V(move-north1 person1 g1 g2 g0)
p139
s(g14
g11
tp140
V(move-south1 person1 g3 g2 g4)
p141
s(g35
g37
tp142
V(move-south1 person1 d1 d2 d0)
p143
s(g64
g67
tp144
V(move-west1 person1 c3 c2 g0)
p145
s(g29
g34
tp146
V(move-south2 person1 c3 d0 c2)
p147
s(g57
g59
tp148
V(move-north0 person1 d0 c3)
p149
s(g11
g13
tp150
V(move-north1 person1 g2 g3 g1)
p151
s(g48
g50
tp152
V(pick-food person1 d4 food2)
p153
s(g45
g47
tp154
V(move-north0 person1 d4 d3)
p155
s(g27
g29
tp156
V(move-east0 person1 c2 c3)
p157
s(g14
g16
tp158
V(move-north0 person1 g3 g4)
p159
s(g60
g62
tp160
V(move-north1 person1 d1 d0 d2)
p161
s(g38
g44
tp162
V(move-south0 person1 d2 d3)
p163
s(g9
g65
tp164
V(move-north1 person1 g0 g1 c3)
p165
s(g20
g22
tp166
V(move-east0 person1 c00 c0)
p167
ssb.